; Function Attrs: mustprogress uwtable
define hidden noundef zeroext i1 @_ZN6recfun3def12contains_defERNS_4utilEP4expr(ptr nocapture noundef nonnull readonly align 8 dereferenceable(109) %this, ptr noundef nonnull align 8 dereferenceable(24) %u, ptr noundef %e) local_unnamed_addr #3 align 2 personality ptr @__gxx_personality_v0 {
invoke.cont:
  %p = alloca %struct.def_find_p, align 8
  %cp = alloca %class.check_pred, align 8
  store ptr getelementptr inbounds ({ [5 x ptr] }, ptr @_ZTVZN6recfun3def12contains_defERNS_4utilEP4exprE10def_find_p, i64 0, i32 0, i64 2), ptr %p, align 8
  %u2.i = getelementptr inbounds i8, ptr %p, i64 8
  store ptr %u, ptr %u2.i, align 8
  %0 = load ptr, ptr %this, align 8
  store ptr %p, ptr %cp, align 8
  %m_pred_holds.i = getelementptr inbounds i8, ptr %cp, i64 8
  store ptr getelementptr inbounds ({ [6 x ptr] }, ptr @_ZTV8ast_mark, i64 0, i32 0, i64 2), ptr %m_pred_holds.i, align 8
  %m_marks.i.i.i = getelementptr inbounds i8, ptr %cp, i64 24
  call void @llvm.memset.p0.i64(ptr noundef nonnull align 8 dereferenceable(16) %m_marks.i.i.i, i8 0, i64 16, i1 false)
  %m_marks.i1.i.i = getelementptr inbounds i8, ptr %cp, i64 48
  call void @llvm.memset.p0.i64(ptr noundef nonnull align 8 dereferenceable(16) %m_marks.i1.i.i, i8 0, i64 16, i1 false)
  %m_visited.i = getelementptr inbounds i8, ptr %cp, i64 64
  store ptr getelementptr inbounds ({ [6 x ptr] }, ptr @_ZTV8ast_mark, i64 0, i32 0, i64 2), ptr %m_visited.i, align 8
  %m_marks.i.i2.i = getelementptr inbounds i8, ptr %cp, i64 80
  call void @llvm.memset.p0.i64(ptr noundef nonnull align 8 dereferenceable(16) %m_marks.i.i2.i, i8 0, i64 16, i1 false)
  %m_marks.i1.i3.i = getelementptr inbounds i8, ptr %cp, i64 104
  call void @llvm.memset.p0.i64(ptr noundef nonnull align 8 dereferenceable(16) %m_marks.i1.i3.i, i8 0, i64 16, i1 false)
  %m_refs.i = getelementptr inbounds i8, ptr %cp, i64 120
  %1 = ptrtoint ptr %0 to i64
  store i64 %1, ptr %m_refs.i, align 8
  %m_nodes.i.i.i = getelementptr inbounds i8, ptr %cp, i64 128
  store ptr null, ptr %m_nodes.i.i.i, align 8
  %m_check_quantifiers.i = getelementptr inbounds i8, ptr %cp, i64 136
  store i8 0, ptr %m_check_quantifiers.i, align 8
  %call = invoke noundef zeroext i1 @_ZN10check_predclEP4expr(ptr noundef nonnull align 8 dereferenceable(137) %cp, ptr noundef %e)
          to label %invoke.cont3 unwind label %lpad2

invoke.cont3:                                     ; preds = %invoke.cont
  call void @_ZN10check_predD2Ev(ptr noundef nonnull align 8 dereferenceable(137) %cp) #21
  ret i1 %call

lpad2:                                            ; preds = %invoke.cont
  %2 = landingpad { ptr, i32 }
          cleanup
  call void @_ZN10check_predD2Ev(ptr noundef nonnull align 8 dereferenceable(137) %cp) #21
  resume { ptr, i32 } %2
}